c__builtin__
set
p0
((lp1
S'PRP$'
p2
aS'VBG'
p3
aS'VBD'
p4
aS'``'
p5
aS'VBN'
p6
aS'POS'
p7
aS"''"
p8
aS'VBP'
p9
aS'WDT'
p10
aS'JJ'
p11
aS'WP'
p12
aS'VBZ'
p13
aS'DT'
p14
aS'#'
p15
aS'RP'
p16
aS'$'
p17
aS'NN'
p18
aS')'
p19
aS'('
p20
aS'FW'
p21
aS','
p22
aS'.'
p23
aS'TO'
p24
aS'PRP'
p25
aS'RB'
p26
aS':'
p27
aS'NNS'
p28
aS'NNP'
p29
aS'VB'
p30
aS'WRB'
p31
aS'CC'
p32
aS'PDT'
p33
aS'RBS'
p34
aS'RBR'
p35
aS'CD'
p36
aS'EX'
p37
aS'IN'
p38
aS'WP$'
p39
aS'MD'
p40
aS'NNPS'
p41
aS'JJS'
p42
aS'JJR'
p43
aS'SYM'
p44
aS'UH'
p45
atp46
Rp47
.