c__builtin__
set
p0
((lp1
S'BOOKS AND LITERATURE'
p2
aS'RECYCLING'
p3
aS'GOLF'
p4
aS"WOMEN'S ROLES"
p5
aS'JOB BENEFITS'
p6
aS'UNIVERSAL PBLIC SERV'
p7
aS'TRIAL BY JURY'
p8
aS'CRIME'
p9
aS'HOUSES'
p10
aS'CHILD CARE'
p11
aS'BASEBALL'
p12
aS'HOBBIES AND CRAFTS'
p13
aS'POLITICS'
p14
aS'CARE OF THE ELDERLY'
p15
aS'PUERTO RICAN STTEHD'
p16
aS'RESTAURANTS'
p17
aS'RIGHT TO PRIVACY'
p18
aS'BASKETBALL'
p19
aS'GARDENING'
p20
aS'CAMPING'
p21
aS'AIR POLLUTION'
p22
aS'BUYING A CAR'
p23
aS'CHOOSING A COLLEGE'
p24
aS'IMMIGRATION'
p25
aS'TV PROGRAMS'
p26
aS'HOME REPAIRS'
p27
aS'PETS'
p28
aS'MAGAZINES'
p29
aS'PAINTING'
p30
aS'FOOTBALL'
p31
aS'SOVIET UNION'
p32
aS'BOATING AND SAILING'
p33
aS'VIETNAM WAR'
p34
aS'ETHICS IN GOVERNMENT'
p35
aS'COMPUTERS'
p36
aS'ELECTIONS AND VOTING'
p37
aS'VACATION SPOTS'
p38
aS'UNIVERSAL HEALTH INS'
p39
aS'FAMILY FINANCE'
p40
aS'TAXES'
p41
aS'RECIPES/FOOD/COOKING'
p42
aS'FEDERAL BUDGET'
p43
aS'PUBLIC EDUCATION'
p44
aS'MUSIC'
p45
aS'MIDDLE EAST'
p46
aS'METRIC SYSTEM'
p47
aS'AUTO REPAIRS'
p48
aS'SVGS & LOAN BAILOUT'
p49
aS'LATIN AMERICA'
p50
aS'CONSUMER GOODS'
p51
aS'AIDS'
p52
aS'WEATHER CLIMATE'
p53
aS'EXERCISE AND FITNESS'
p54
aS'SPACE FLIGHT AND EXPLORATION'
p55
aS'GUN CONTROL'
p56
aS'MOVIES'
p57
aS'FAMILY REUNIONS'
p58
aS'FAMILY LIFE'
p59
aS'SOCIAL CHANGE'
p60
aS'CREDIT CARD USE'
p61
aS'WOODWORKING'
p62
aS'CLOTHING AND DRESS'
p63
aS'FISHING'
p64
aS'NEWS MEDIA'
p65
aS'DRUG TESTING'
p66
aS'CAPITAL PUNISHMENT'
p67
atp68
Rp69
.